target datalayout = "e-m:e-p270:32:32-p271:32:32-p272:64:64-i64:64-i128:128-f80:128-n8:16:32:64-S128"
target triple = "x86_64-unknown-linux-gnu"

%"class.std::basic_string_view" = type { i64, ptr }
%"struct.grpc_event_engine::experimental::EventEngine::TaskHandle" = type { [2 x i64] }
%struct.grpc_chttp2_transport = type { %"class.grpc_core::Transport", %"class.grpc_core::FilterStackTransport", %"class.grpc_core::RefCounted", ptr, %"class.grpc_core::Slice", %"class.grpc_core::MemoryOwner", %"class.grpc_event_engine::experimental::MemoryAllocator::Reservation", %"class.grpc_core::ReclamationSweep", %"class.std::shared_ptr.5", ptr, %"class.absl::lts_20230802::random_internal::NonsecureURBGBase", ptr, ptr, %"class.absl::lts_20230802::Status", [5 x %struct.grpc_chttp2_stream_list], %"class.absl::lts_20230802::flat_hash_map", i64, %struct.grpc_closure, %struct.grpc_closure, %struct.grpc_closure, %struct.grpc_slice_buffer, ptr, ptr, ptr, ptr, %"class.grpc_core::ConnectivityStateTracker", %"class.grpc_core::SliceBuffer", %"class.grpc_core::HPackCompressor", %struct.grpc_slice_buffer, i64, %"class.absl::lts_20230802::Status", i32, i32, [4 x [8 x i32]], %"struct.grpc_event_engine::experimental::EventEngine::TaskHandle", i32, i32, i32, %"class.grpc_core::Chttp2PingAbusePolicy", %"class.grpc_core::Chttp2PingRatePolicy", %"class.grpc_core::Chttp2PingCallbacks", %"struct.grpc_event_engine::experimental::EventEngine::TaskHandle", %struct.grpc_closure, %"class.grpc_core::Chttp2MaxConcurrentStreamsPolicy", i64, i64, ptr, %"class.grpc_core::HPackParser", %union.anon.179, %struct.grpc_chttp2_goaway_parser, %"class.grpc_core::chttp2::TransportFlowControl", i64, i32, i8, i8, i8, i8, i32, i32, i32, i32, i8, ptr, %"struct.grpc_chttp2_transport::Parser", ptr, %struct.grpc_closure, %struct.grpc_closure, %struct.grpc_closure, %"class.absl::lts_20230802::Status", %struct.grpc_closure_list, %struct.grpc_closure, %struct.grpc_closure, %"struct.grpc_event_engine::experimental::EventEngine::TaskHandle", %struct.grpc_closure, %struct.grpc_closure, %"struct.grpc_event_engine::experimental::EventEngine::TaskHandle", %"class.grpc_core::Duration", %"class.grpc_core::Duration", %"struct.std::atomic.180", i32, i32, ptr, %"class.grpc_core::RefCountedPtr.182", i32, i32, i32, %"class.grpc_core::Duration", %"struct.grpc_event_engine::experimental::EventEngine::TaskHandle", %"class.grpc_core::Duration", i32, i32, %"class.grpc_core::Chttp2WriteSizePolicy", i8, i8, i8, i8, i8, i8, i8, i8, i8, i8, i8, i8, i8, i8, i8, i8 }
%"class.grpc_core::Transport" = type { %"class.grpc_core::Orphanable" }
%"class.grpc_core::Orphanable" = type { ptr }
%"class.grpc_core::FilterStackTransport" = type { ptr }
%"class.grpc_core::RefCounted" = type { %"class.grpc_core::RefCount" }
%"class.grpc_core::RefCount" = type { %"struct.std::atomic.0" }
%"struct.std::atomic.0" = type { %"struct.std::__atomic_base.1" }
%"struct.std::__atomic_base.1" = type { i64 }
%"class.grpc_core::Slice" = type { %"class.grpc_core::slice_detail::BaseSlice" }
%"class.grpc_core::slice_detail::BaseSlice" = type { %struct.grpc_slice }
%struct.grpc_slice = type { ptr, %"union.grpc_slice::grpc_slice_data" }
%"union.grpc_slice::grpc_slice_data" = type { %"struct.grpc_slice::grpc_slice_data::grpc_slice_refcounted", [8 x i8] }
%"struct.grpc_slice::grpc_slice_data::grpc_slice_refcounted" = type { i64, ptr }
%"class.grpc_core::MemoryOwner" = type { %"class.grpc_event_engine::experimental::MemoryAllocator" }
%"class.grpc_event_engine::experimental::MemoryAllocator" = type { %"class.std::shared_ptr" }
%"class.std::shared_ptr" = type { %"class.std::__shared_ptr" }
%"class.std::__shared_ptr" = type { ptr, %"class.std::__shared_count" }
%"class.std::__shared_count" = type { ptr }
%"class.grpc_event_engine::experimental::MemoryAllocator::Reservation" = type { %"class.std::shared_ptr", i64 }
%"class.grpc_core::ReclamationSweep" = type { %"class.std::shared_ptr.2", i64, %"class.grpc_core::Waker" }
%"class.std::shared_ptr.2" = type { %"class.std::__shared_ptr.3" }
%"class.std::__shared_ptr.3" = type { ptr, %"class.std::__shared_count" }
%"class.grpc_core::Waker" = type { %"struct.grpc_core::Waker::WakeableAndArg" }
%"struct.grpc_core::Waker::WakeableAndArg" = type { ptr, i16 }
%"class.std::shared_ptr.5" = type { %"class.std::__shared_ptr.6" }
%"class.std::__shared_ptr.6" = type { ptr, %"class.std::__shared_count" }
%"class.absl::lts_20230802::random_internal::NonsecureURBGBase" = type { %"class.absl::lts_20230802::random_internal::randen_engine" }
%"class.absl::lts_20230802::random_internal::randen_engine" = type { [264 x i8], i64, %"class.absl::lts_20230802::random_internal::Randen" }
%"class.absl::lts_20230802::random_internal::Randen" = type <{ ptr, i8, [7 x i8] }>
%struct.grpc_chttp2_stream_list = type { ptr, ptr }
%"class.absl::lts_20230802::flat_hash_map" = type { %"class.absl::lts_20230802::container_internal::raw_hash_map" }
%"class.absl::lts_20230802::container_internal::raw_hash_map" = type { %"class.absl::lts_20230802::container_internal::raw_hash_set" }
%"class.absl::lts_20230802::container_internal::raw_hash_set" = type { %"class.absl::lts_20230802::container_internal::CompressedTuple" }
%"class.absl::lts_20230802::container_internal::CompressedTuple" = type { %"struct.absl::lts_20230802::container_internal::internal_compressed_tuple::CompressedTupleImpl" }
%"struct.absl::lts_20230802::container_internal::internal_compressed_tuple::CompressedTupleImpl" = type { %"struct.absl::lts_20230802::container_internal::internal_compressed_tuple::Storage" }
%"struct.absl::lts_20230802::container_internal::internal_compressed_tuple::Storage" = type { %"class.absl::lts_20230802::container_internal::CommonFields" }
%"class.absl::lts_20230802::container_internal::CommonFields" = type { ptr, ptr, i64, %"class.absl::lts_20230802::container_internal::CompressedTuple.8" }
%"class.absl::lts_20230802::container_internal::CompressedTuple.8" = type { %"struct.absl::lts_20230802::container_internal::internal_compressed_tuple::CompressedTupleImpl.9" }
%"struct.absl::lts_20230802::container_internal::internal_compressed_tuple::CompressedTupleImpl.9" = type { %"struct.absl::lts_20230802::container_internal::internal_compressed_tuple::Storage.10" }
%"struct.absl::lts_20230802::container_internal::internal_compressed_tuple::Storage.10" = type { i64 }
%"class.grpc_core::ConnectivityStateTracker" = type { ptr, %"struct.std::atomic.16", %"class.absl::lts_20230802::Status", %"class.std::map" }
%"struct.std::atomic.16" = type { i32 }
%"class.std::map" = type { %"class.std::_Rb_tree" }
%"class.std::_Rb_tree" = type { %"struct.std::_Rb_tree<grpc_core::ConnectivityStateWatcherInterface *, std::pair<grpc_core::ConnectivityStateWatcherInterface *const, std::unique_ptr<grpc_core::ConnectivityStateWatcherInterface, grpc_core::OrphanableDelete>>, std::_Select1st<std::pair<grpc_core::ConnectivityStateWatcherInterface *const, std::unique_ptr<grpc_core::ConnectivityStateWatcherInterface, grpc_core::OrphanableDelete>>>, std::less<grpc_core::ConnectivityStateWatcherInterface *>>::_Rb_tree_impl" }
%"struct.std::_Rb_tree<grpc_core::ConnectivityStateWatcherInterface *, std::pair<grpc_core::ConnectivityStateWatcherInterface *const, std::unique_ptr<grpc_core::ConnectivityStateWatcherInterface, grpc_core::OrphanableDelete>>, std::_Select1st<std::pair<grpc_core::ConnectivityStateWatcherInterface *const, std::unique_ptr<grpc_core::ConnectivityStateWatcherInterface, grpc_core::OrphanableDelete>>>, std::less<grpc_core::ConnectivityStateWatcherInterface *>>::_Rb_tree_impl" = type { %"struct.std::_Rb_tree_key_compare", %"struct.std::_Rb_tree_header" }
%"struct.std::_Rb_tree_key_compare" = type { %"struct.std::less" }
%"struct.std::less" = type { i8 }
%"struct.std::_Rb_tree_header" = type { %"struct.std::_Rb_tree_node_base", i64 }
%"struct.std::_Rb_tree_node_base" = type { i32, ptr, ptr, ptr }
%"class.grpc_core::SliceBuffer" = type { %struct.grpc_slice_buffer }
%"class.grpc_core::HPackCompressor" = type { i32, i8, %"class.grpc_core::HPackEncoderTable", %"struct.grpc_core::metadata_detail::StatefulCompressor" }
%"class.grpc_core::HPackEncoderTable" = type { i32, i32, i32, i32, %"class.std::vector" }
%"class.std::vector" = type { %"struct.std::_Vector_base" }
%"struct.std::_Vector_base" = type { %"struct.std::_Vector_base<unsigned short, std::allocator<unsigned short>>::_Vector_impl" }
%"struct.std::_Vector_base<unsigned short, std::allocator<unsigned short>>::_Vector_impl" = type { %"struct.std::_Vector_base<unsigned short, std::allocator<unsigned short>>::_Vector_impl_data" }
%"struct.std::_Vector_base<unsigned short, std::allocator<unsigned short>>::_Vector_impl_data" = type { ptr, ptr, ptr }
%"struct.grpc_core::metadata_detail::StatefulCompressor" = type <{ %"struct.grpc_core::metadata_detail::SpecificStatefulCompressor", %"struct.grpc_core::metadata_detail::StatefulCompressor.base.144", [4 x i8] }>
%"struct.grpc_core::metadata_detail::SpecificStatefulCompressor" = type { %"class.grpc_core::hpack_encoder_detail::Compressor" }
%"class.grpc_core::hpack_encoder_detail::Compressor" = type { %"class.grpc_core::hpack_encoder_detail::SliceIndex" }
%"class.grpc_core::hpack_encoder_detail::SliceIndex" = type { %"class.std::vector.24" }
%"class.std::vector.24" = type { %"struct.std::_Vector_base.25" }
%"struct.std::_Vector_base.25" = type { %"struct.std::_Vector_base<grpc_core::hpack_encoder_detail::SliceIndex::ValueIndex, std::allocator<grpc_core::hpack_encoder_detail::SliceIndex::ValueIndex>>::_Vector_impl" }
%"struct.std::_Vector_base<grpc_core::hpack_encoder_detail::SliceIndex::ValueIndex, std::allocator<grpc_core::hpack_encoder_detail::SliceIndex::ValueIndex>>::_Vector_impl" = type { %"struct.std::_Vector_base<grpc_core::hpack_encoder_detail::SliceIndex::ValueIndex, std::allocator<grpc_core::hpack_encoder_detail::SliceIndex::ValueIndex>>::_Vector_impl_data" }
%"struct.std::_Vector_base<grpc_core::hpack_encoder_detail::SliceIndex::ValueIndex, std::allocator<grpc_core::hpack_encoder_detail::SliceIndex::ValueIndex>>::_Vector_impl_data" = type { ptr, ptr, ptr }
%"struct.grpc_core::metadata_detail::StatefulCompressor.base.144" = type <{ %"struct.grpc_core::metadata_detail::SpecificStatefulCompressor.30", %"struct.grpc_core::metadata_detail::StatefulCompressor.base.143" }>
%"struct.grpc_core::metadata_detail::SpecificStatefulCompressor.30" = type { %"class.grpc_core::hpack_encoder_detail::Compressor.31" }
%"class.grpc_core::hpack_encoder_detail::Compressor.31" = type { %"class.grpc_core::hpack_encoder_detail::SliceIndex" }
%"struct.grpc_core::metadata_detail::StatefulCompressor.base.143" = type { %"struct.grpc_core::metadata_detail::StatefulCompressor.base.142" }
%"struct.grpc_core::metadata_detail::StatefulCompressor.base.142" = type { %"struct.grpc_core::metadata_detail::StatefulCompressor.base.141" }
%"struct.grpc_core::metadata_detail::StatefulCompressor.base.141" = type { %"struct.grpc_core::metadata_detail::StatefulCompressor.base.140" }
%"struct.grpc_core::metadata_detail::StatefulCompressor.base.140" = type { %"struct.grpc_core::metadata_detail::SpecificStatefulCompressor.42", [4 x i8], %"struct.grpc_core::metadata_detail::StatefulCompressor.base.139" }
%"struct.grpc_core::metadata_detail::SpecificStatefulCompressor.42" = type { %"class.grpc_core::hpack_encoder_detail::Compressor.43" }
%"class.grpc_core::hpack_encoder_detail::Compressor.43" = type { i32 }
%"struct.grpc_core::metadata_detail::StatefulCompressor.base.139" = type { %"struct.grpc_core::metadata_detail::SpecificStatefulCompressor.45", [4 x i8], %"struct.grpc_core::metadata_detail::StatefulCompressor.base.138" }
%"struct.grpc_core::metadata_detail::SpecificStatefulCompressor.45" = type { %"class.grpc_core::hpack_encoder_detail::Compressor.46" }
%"class.grpc_core::hpack_encoder_detail::Compressor.46" = type { i32 }
%"struct.grpc_core::metadata_detail::StatefulCompressor.base.138" = type { %"struct.grpc_core::metadata_detail::SpecificStatefulCompressor.48", [4 x i8], %"struct.grpc_core::metadata_detail::StatefulCompressor.base.137" }
%"struct.grpc_core::metadata_detail::SpecificStatefulCompressor.48" = type { %"class.grpc_core::hpack_encoder_detail::Compressor.49" }
%"class.grpc_core::hpack_encoder_detail::Compressor.49" = type { [3 x i32] }
%"struct.grpc_core::metadata_detail::StatefulCompressor.base.137" = type { %"struct.grpc_core::metadata_detail::StatefulCompressor.base.136" }
%"struct.grpc_core::metadata_detail::StatefulCompressor.base.136" = type { %"struct.grpc_core::metadata_detail::SpecificStatefulCompressor.54", %"struct.grpc_core::metadata_detail::StatefulCompressor.base.135" }
%"struct.grpc_core::metadata_detail::SpecificStatefulCompressor.54" = type { %"class.grpc_core::hpack_encoder_detail::Compressor.55" }
%"class.grpc_core::hpack_encoder_detail::Compressor.55" = type { %"class.grpc_core::CompressionAlgorithmSet", i32 }
%"class.grpc_core::CompressionAlgorithmSet" = type { %"class.grpc_core::BitSet" }
%"class.grpc_core::BitSet" = type { [1 x i8] }
%"struct.grpc_core::metadata_detail::StatefulCompressor.base.135" = type { %"struct.grpc_core::metadata_detail::SpecificStatefulCompressor.57", %"struct.grpc_core::metadata_detail::StatefulCompressor.base.134" }
%"struct.grpc_core::metadata_detail::SpecificStatefulCompressor.57" = type { %"class.grpc_core::hpack_encoder_detail::Compressor.58" }
%"class.grpc_core::hpack_encoder_detail::Compressor.58" = type { [16 x i32] }
%"struct.grpc_core::metadata_detail::StatefulCompressor.base.134" = type { %"struct.grpc_core::metadata_detail::SpecificStatefulCompressor.60", [4 x i8], %"struct.grpc_core::metadata_detail::StatefulCompressor.base.133" }
%"struct.grpc_core::metadata_detail::SpecificStatefulCompressor.60" = type { %"class.grpc_core::hpack_encoder_detail::Compressor.61" }
%"class.grpc_core::hpack_encoder_detail::Compressor.61" = type { %"class.grpc_core::hpack_encoder_detail::TimeoutCompressorImpl" }
%"class.grpc_core::hpack_encoder_detail::TimeoutCompressorImpl" = type { [5 x %"struct.grpc_core::hpack_encoder_detail::PreviousTimeout"], i32 }
%"struct.grpc_core::hpack_encoder_detail::PreviousTimeout" = type { %"class.grpc_core::Timeout", i32 }
%"class.grpc_core::Timeout" = type <{ i16, i8, i8 }>
%"struct.grpc_core::metadata_detail::StatefulCompressor.base.133" = type { %"struct.grpc_core::metadata_detail::StatefulCompressor.base.132" }
%"struct.grpc_core::metadata_detail::StatefulCompressor.base.132" = type { %"struct.grpc_core::metadata_detail::StatefulCompressor.base.131" }
%"struct.grpc_core::metadata_detail::StatefulCompressor.base.131" = type { %"struct.grpc_core::metadata_detail::SpecificStatefulCompressor.base", [4 x i8], %"struct.grpc_core::metadata_detail::StatefulCompressor.base.130" }
%"struct.grpc_core::metadata_detail::SpecificStatefulCompressor.base" = type { %"class.grpc_core::hpack_encoder_detail::Compressor.base" }
%"class.grpc_core::hpack_encoder_detail::Compressor.base" = type <{ %"class.grpc_core::Slice", i32 }>
%"struct.grpc_core::metadata_detail::StatefulCompressor.base.130" = type { %"struct.grpc_core::metadata_detail::StatefulCompressor.base.129" }
%"struct.grpc_core::metadata_detail::StatefulCompressor.base.129" = type { %"struct.grpc_core::metadata_detail::StatefulCompressor.base.128" }
%"struct.grpc_core::metadata_detail::StatefulCompressor.base.128" = type { %"struct.grpc_core::metadata_detail::StatefulCompressor.base.127" }
%"struct.grpc_core::metadata_detail::StatefulCompressor.base.127" = type { %"struct.grpc_core::metadata_detail::StatefulCompressor.base.126" }
%"struct.grpc_core::metadata_detail::StatefulCompressor.base.126" = type { %"struct.grpc_core::metadata_detail::SpecificStatefulCompressor.84", [4 x i8], %"struct.grpc_core::metadata_detail::StatefulCompressor.base.125" }
%"struct.grpc_core::metadata_detail::SpecificStatefulCompressor.84" = type { %"class.grpc_core::hpack_encoder_detail::Compressor.85" }
%"class.grpc_core::hpack_encoder_detail::Compressor.85" = type { i32 }
%"struct.grpc_core::metadata_detail::StatefulCompressor.base.125" = type { %"struct.grpc_core::metadata_detail::SpecificStatefulCompressor.87", [4 x i8], %"struct.grpc_core::metadata_detail::StatefulCompressor.base.124" }
%"struct.grpc_core::metadata_detail::SpecificStatefulCompressor.87" = type { %"class.grpc_core::hpack_encoder_detail::Compressor.88" }
%"class.grpc_core::hpack_encoder_detail::Compressor.88" = type { i32 }
%"struct.grpc_core::metadata_detail::StatefulCompressor.base.124" = type { %"struct.grpc_core::metadata_detail::StatefulCompressor.base.123" }
%"struct.grpc_core::metadata_detail::StatefulCompressor.base.123" = type { %"struct.grpc_core::metadata_detail::StatefulCompressor.base.122" }
%"struct.grpc_core::metadata_detail::StatefulCompressor.base.122" = type { %"struct.grpc_core::metadata_detail::StatefulCompressor.base" }
%"struct.grpc_core::metadata_detail::StatefulCompressor.base" = type { %"struct.grpc_core::metadata_detail::SpecificStatefulCompressor.base.102" }
%"struct.grpc_core::metadata_detail::SpecificStatefulCompressor.base.102" = type { %"class.grpc_core::hpack_encoder_detail::Compressor.base.101" }
%"class.grpc_core::hpack_encoder_detail::Compressor.base.101" = type <{ %"class.grpc_core::Slice", i32 }>
%struct.grpc_slice_buffer = type { ptr, ptr, i64, i64, i64, [7 x %struct.grpc_slice] }
%"class.grpc_core::Chttp2PingAbusePolicy" = type { %"class.grpc_core::Timestamp", %"class.grpc_core::Duration", i32, i32 }
%"class.grpc_core::Timestamp" = type { i64 }
%"class.grpc_core::Chttp2PingRatePolicy" = type { i32, i32, i32, %"class.grpc_core::Timestamp" }
%"class.grpc_core::Chttp2PingCallbacks" = type { %"class.absl::lts_20230802::flat_hash_map.146", i64, i8, i8, %"class.std::vector.161", %"class.std::vector.161" }
%"class.absl::lts_20230802::flat_hash_map.146" = type { %"class.absl::lts_20230802::container_internal::raw_hash_map.147" }
%"class.absl::lts_20230802::container_internal::raw_hash_map.147" = type { %"class.absl::lts_20230802::container_internal::raw_hash_set.148" }
%"class.absl::lts_20230802::container_internal::raw_hash_set.148" = type { %"class.absl::lts_20230802::container_internal::CompressedTuple.149" }
%"class.absl::lts_20230802::container_internal::CompressedTuple.149" = type { %"struct.absl::lts_20230802::container_internal::internal_compressed_tuple::CompressedTupleImpl.150" }
%"struct.absl::lts_20230802::container_internal::internal_compressed_tuple::CompressedTupleImpl.150" = type { %"struct.absl::lts_20230802::container_internal::internal_compressed_tuple::Storage" }
%"class.std::vector.161" = type { %"struct.std::_Vector_base.162" }
%"struct.std::_Vector_base.162" = type { %"struct.std::_Vector_base<absl::lts_20230802::AnyInvocable<void ()>, std::allocator<absl::lts_20230802::AnyInvocable<void ()>>>::_Vector_impl" }
%"struct.std::_Vector_base<absl::lts_20230802::AnyInvocable<void ()>, std::allocator<absl::lts_20230802::AnyInvocable<void ()>>>::_Vector_impl" = type { %"struct.std::_Vector_base<absl::lts_20230802::AnyInvocable<void ()>, std::allocator<absl::lts_20230802::AnyInvocable<void ()>>>::_Vector_impl_data" }
%"struct.std::_Vector_base<absl::lts_20230802::AnyInvocable<void ()>, std::allocator<absl::lts_20230802::AnyInvocable<void ()>>>::_Vector_impl_data" = type { ptr, ptr, ptr }
%"class.grpc_core::Chttp2MaxConcurrentStreamsPolicy" = type { i32, i32, i32, i32 }
%"class.grpc_core::HPackParser" = type { ptr, %"class.std::vector.166", i64, i8, i8, %"struct.grpc_core::HPackParser::LogInfo", %"struct.grpc_core::HPackParser::InterSliceState" }
%"class.std::vector.166" = type { %"struct.std::_Vector_base.167" }
%"struct.std::_Vector_base.167" = type { %"struct.std::_Vector_base<unsigned char, std::allocator<unsigned char>>::_Vector_impl" }
%"struct.std::_Vector_base<unsigned char, std::allocator<unsigned char>>::_Vector_impl" = type { %"struct.std::_Vector_base<unsigned char, std::allocator<unsigned char>>::_Vector_impl_data" }
%"struct.std::_Vector_base<unsigned char, std::allocator<unsigned char>>::_Vector_impl_data" = type { ptr, ptr, ptr }
%"struct.grpc_core::HPackParser::LogInfo" = type { i32, i8, i8 }
%"struct.grpc_core::HPackParser::InterSliceState" = type { %"class.grpc_core::HPackTable", %"class.grpc_core::HpackParseResult", i32, i32, %"class.grpc_core::RandomEarlyDetection", i8, i8, i8, i8, i8, [3 x i8], %"class.std::variant" }
%"class.grpc_core::HPackTable" = type { i32, i32, i32, %"class.grpc_core::HPackTable::MementoRingBuffer", ptr }
%"class.grpc_core::HPackTable::MementoRingBuffer" = type { i32, i32, i32, %"class.std::vector.171" }
%"class.std::vector.171" = type { %"struct.std::_Vector_base.172" }
%"struct.std::_Vector_base.172" = type { %"struct.std::_Vector_base<grpc_core::HPackTable::Memento, std::allocator<grpc_core::HPackTable::Memento>>::_Vector_impl" }
%"struct.std::_Vector_base<grpc_core::HPackTable::Memento, std::allocator<grpc_core::HPackTable::Memento>>::_Vector_impl" = type { %"struct.std::_Vector_base<grpc_core::HPackTable::Memento, std::allocator<grpc_core::HPackTable::Memento>>::_Vector_impl_data" }
%"struct.std::_Vector_base<grpc_core::HPackTable::Memento, std::allocator<grpc_core::HPackTable::Memento>>::_Vector_impl_data" = type { ptr, ptr, ptr }
%"class.grpc_core::HpackParseResult" = type { %"class.grpc_core::RefCountedPtr" }
%"class.grpc_core::RefCountedPtr" = type { ptr }
%"class.grpc_core::RandomEarlyDetection" = type { i64, i64 }
%"class.std::variant" = type { %"struct.std::__detail::__variant::_Variant_base.base", [7 x i8] }
%"struct.std::__detail::__variant::_Variant_base.base" = type { %"struct.std::__detail::__variant::_Move_assign_base.base" }
%"struct.std::__detail::__variant::_Move_assign_base.base" = type { %"struct.std::__detail::__variant::_Copy_assign_base.base" }
%"struct.std::__detail::__variant::_Copy_assign_base.base" = type { %"struct.std::__detail::__variant::_Move_ctor_base.base" }
%"struct.std::__detail::__variant::_Move_ctor_base.base" = type { %"struct.std::__detail::__variant::_Copy_ctor_base.base" }
%"struct.std::__detail::__variant::_Copy_ctor_base.base" = type { %"struct.std::__detail::__variant::_Variant_storage.base" }
%"struct.std::__detail::__variant::_Variant_storage.base" = type <{ %"union.std::__detail::__variant::_Variadic_union", i8 }>
%"union.std::__detail::__variant::_Variadic_union" = type { %"struct.std::__detail::__variant::_Uninitialized", [24 x i8] }
%"struct.std::__detail::__variant::_Uninitialized" = type { ptr }
%union.anon.179 = type { %struct.grpc_chttp2_settings_parser }
%struct.grpc_chttp2_settings_parser = type { i32, ptr, i8, i16, i32, [8 x i32] }
%struct.grpc_chttp2_goaway_parser = type { i32, i32, i32, ptr, i32, i32 }
%"class.grpc_core::chttp2::TransportFlowControl" = type { ptr, i64, i8, %"class.grpc_core::BdpEstimator", %"class.grpc_core::PidController", %"class.grpc_core::Timestamp", i64, i64, i64, i64, i64, i32, i32 }
%"class.grpc_core::BdpEstimator" = type { i64, i64, %struct.gpr_timespec, %"class.grpc_core::Duration", i32, i32, double, %"class.std::basic_string_view" }
%struct.gpr_timespec = type { i64, i32, i32 }
%"class.grpc_core::PidController" = type { double, double, double, double, %"class.grpc_core::PidController::Args" }
%"class.grpc_core::PidController::Args" = type { double, double, double, double, double, double, double }
%"struct.grpc_chttp2_transport::Parser" = type { ptr, ptr, ptr }
%"class.absl::lts_20230802::Status" = type { i64 }
%struct.grpc_closure_list = type { ptr, ptr }
%struct.grpc_closure = type { %union.anon, ptr, ptr, %union.anon.15 }
%union.anon = type { ptr }
%union.anon.15 = type { i64 }
%"struct.std::atomic.180" = type { %"struct.std::__atomic_base.181" }
%"struct.std::__atomic_base.181" = type { i64 }
%"class.grpc_core::RefCountedPtr.182" = type { ptr }
%"class.grpc_core::Duration" = type { i64 }
%"class.grpc_core::Chttp2WriteSizePolicy" = type <{ i64, %"class.grpc_core::Timestamp", i8, [7 x i8] }>

@.str.9 = private unnamed_addr constant [12 x i8] c"skip_parser\00", align 1

; Function Attrs: mustprogress nounwind uwtable
define linkonce_odr void @_ZN9grpc_core11HPackParser18StopBufferingFrameEv(ptr noundef nonnull align 8 dereferenceable(200) %this) #7 comdat align 2 {
entry:
  %this.addr = alloca ptr, align 8
  store ptr %this, ptr %this.addr, align 8
  %this1 = load ptr, ptr %this.addr, align 8
  %metadata_buffer_ = getelementptr inbounds %"class.grpc_core::HPackParser", ptr %this1, i32 0, i32 0
  store ptr null, ptr %metadata_buffer_, align 8
  ret void
}

; Function Attrs: mustprogress uwtable
define void @_Z38grpc_chttp2_parsing_become_skip_parserP21grpc_chttp2_transport(ptr noundef %t) #4 {
entry:
  %t.addr = alloca ptr, align 8
  %ref.tmp = alloca %"struct.grpc_chttp2_transport::Parser", align 8
  store ptr %t, ptr %t.addr, align 8
  %0 = load ptr, ptr %t.addr, align 8
  %parser = getelementptr inbounds %struct.grpc_chttp2_transport, ptr %0, i32 0, i32 63
  %parser1 = getelementptr inbounds %"struct.grpc_chttp2_transport::Parser", ptr %parser, i32 0, i32 1
  %1 = load ptr, ptr %parser1, align 8
  %cmp = icmp eq ptr %1, @_Z31grpc_chttp2_header_parser_parsePvP21grpc_chttp2_transportP18grpc_chttp2_streamRK10grpc_slicei
  br i1 %cmp, label %if.then, label %if.else

if.then:                                          ; preds = %entry
  %2 = load ptr, ptr %t.addr, align 8
  %hpack_parser = getelementptr inbounds %struct.grpc_chttp2_transport, ptr %2, i32 0, i32 47
  call void @_ZN9grpc_core11HPackParser18StopBufferingFrameEv(ptr noundef nonnull align 8 dereferenceable(200) %hpack_parser)
  br label %if.end

if.else:                                          ; preds = %entry
  %name = getelementptr inbounds %"struct.grpc_chttp2_transport::Parser", ptr %ref.tmp, i32 0, i32 0
  store ptr @.str.9, ptr %name, align 8
  %parser2 = getelementptr inbounds %"struct.grpc_chttp2_transport::Parser", ptr %ref.tmp, i32 0, i32 1
  store ptr @_ZL11skip_parserPvP21grpc_chttp2_transportP18grpc_chttp2_streamRK10grpc_slicei, ptr %parser2, align 8
  %user_data = getelementptr inbounds %"struct.grpc_chttp2_transport::Parser", ptr %ref.tmp, i32 0, i32 2
  store ptr null, ptr %user_data, align 8
  %3 = load ptr, ptr %t.addr, align 8
  %parser3 = getelementptr inbounds %struct.grpc_chttp2_transport, ptr %3, i32 0, i32 63
  call void @llvm.memcpy.p0.p0.i64(ptr align 8 %parser3, ptr align 8 %ref.tmp, i64 24, i1 false)
  br label %if.end

if.end:                                           ; preds = %if.else, %if.then
  ret void
}