; Function Attrs: mustprogress nofree norecurse nosync nounwind willreturn memory(argmem: readwrite) uwtable
define void @_Z38grpc_chttp2_parsing_become_skip_parserP21grpc_chttp2_transport(ptr nocapture noundef %t) local_unnamed_addr #9 {
entry:
  %parser1 = getelementptr inbounds i8, ptr %t, i64 2936
  %0 = load ptr, ptr %parser1, align 8
  %cmp = icmp eq ptr %0, @_Z31grpc_chttp2_header_parser_parsePvP21grpc_chttp2_transportP18grpc_chttp2_streamRK10grpc_slicei
  br i1 %cmp, label %if.end, label %if.else

if.else:                                          ; preds = %entry
  %parser = getelementptr inbounds i8, ptr %t, i64 2928
  store ptr @.str.9, ptr %parser, align 8
  store ptr @_ZL11skip_parserPvP21grpc_chttp2_transportP18grpc_chttp2_streamRK10grpc_slicei, ptr %parser1, align 8
  br label %if.end

if.end:                                           ; preds = %entry, %if.else
  %.sink = phi i64 [ 2944, %if.else ], [ 2352, %entry ]
  %ref.tmp.sroa.3.0.parser3.sroa_idx = getelementptr inbounds i8, ptr %t, i64 %.sink
  store ptr null, ptr %ref.tmp.sroa.3.0.parser3.sroa_idx, align 8
  ret void
}